target datalayout = "e-m:e-p270:32:32-p271:32:32-p272:64:64-i64:64-i128:128-f80:128-n8:16:32:64-S128"
target triple = "x86_64-pc-linux-gnu"

@filter_hw_device = global ptr null, align 8
@.str.645 = private unnamed_addr constant [37 x i8] c"Only one filter device can be used.\0A\00", align 1
@.str.646 = private unnamed_addr constant [27 x i8] c"Invalid filter device %s.\0A\00", align 1

; Function Attrs: nounwind uwtable
define internal i32 @opt_filter_hw_device(ptr noundef %0, ptr noundef %1, ptr noundef %2) #0 {
  %4 = alloca i32, align 4
  %5 = alloca ptr, align 8
  %6 = alloca ptr, align 8
  %7 = alloca ptr, align 8
  store ptr %0, ptr %5, align 8, !tbaa !26
  store ptr %1, ptr %6, align 8, !tbaa !23
  store ptr %2, ptr %7, align 8, !tbaa !23
  %8 = load ptr, ptr @filter_hw_device, align 8, !tbaa !199
  %9 = icmp ne ptr %8, null
  br i1 %9, label %10, label %11

10:                                               ; preds = %3
  call void (ptr, i32, ptr, ...) @av_log(ptr noundef null, i32 noundef 16, ptr noundef @.str.645)
  store i32 -22, ptr %4, align 4
  br label %19

11:                                               ; preds = %3
  %12 = load ptr, ptr %7, align 8, !tbaa !23
  %13 = call ptr @hw_device_get_by_name(ptr noundef %12)
  store ptr %13, ptr @filter_hw_device, align 8, !tbaa !199
  %14 = load ptr, ptr @filter_hw_device, align 8, !tbaa !199
  %15 = icmp ne ptr %14, null
  br i1 %15, label %18, label %16

16:                                               ; preds = %11
  %17 = load ptr, ptr %7, align 8, !tbaa !23
  call void (ptr, i32, ptr, ...) @av_log(ptr noundef null, i32 noundef 16, ptr noundef @.str.646, ptr noundef %17)
  store i32 -22, ptr %4, align 4
  br label %19

18:                                               ; preds = %11
  store i32 0, ptr %4, align 4
  br label %19

19:                                               ; preds = %18, %16, %10
  %20 = load i32, ptr %4, align 4
  ret i32 %20
}