; Function Attrs: nounwind uwtable
define internal range(i32 -22, 1) i32 @opt_filter_hw_device(ptr readnone captures(none) %0, ptr readnone captures(none) %1, ptr noundef %2) #0 {
  %4 = load ptr, ptr @filter_hw_device, align 8, !tbaa !175
  %.not = icmp eq ptr %4, null
  br i1 %.not, label %6, label %5

5:                                                ; preds = %3
  tail call void (ptr, i32, ptr, ...) @av_log(ptr noundef null, i32 noundef 16, ptr noundef nonnull @.str.645) #15
  br label %9

6:                                                ; preds = %3
  %7 = tail call ptr @hw_device_get_by_name(ptr noundef %2) #15
  store ptr %7, ptr @filter_hw_device, align 8, !tbaa !175
  %.not2 = icmp eq ptr %7, null
  br i1 %.not2, label %8, label %9

8:                                                ; preds = %6
  tail call void (ptr, i32, ptr, ...) @av_log(ptr noundef null, i32 noundef 16, ptr noundef nonnull @.str.646, ptr noundef %2) #15
  br label %9

9:                                                ; preds = %6, %8, %5
  %.0 = phi i32 [ -22, %5 ], [ -22, %8 ], [ 0, %6 ]
  ret i32 %.0
}